(lp0
I1494533146
aI1494533146
aI1545551554
aI1545566634
aI1542424757
aI1539658933
aI1537820481
aI1536185945
aI1533622763
aI1521092965
aI1520719100
aI1519974800
aI1518840383
aI1518857006
aI1518902516
a.