(lp0
I1450303362
aI1449006901
aI1448751253
aI1448299529
aI1447449110
aI1447450651
aI1446314876
aI1443231814
aI1442951436
aI1441588944
aI1441340289
aI1436330700
aI1436320150
aI1433354862
aI1429712909
aI1429748603
aI1429764152
aI1483044220
aI1482720662
aI1482695244
aI1482702120
aI1482601759
aI1482613851
aI1482630719
aI1482676237
aI1482253289
aI1482098456
aI1482099517
aI1482099804
aI1482102467
aI1482166113
aI1481741748
aI1481667879
aI1481781243
aI1481613609
aI1481641606
aI1481692007
aI1481692214
aI1481832811
aI1481560005
aI1481561296
aI1481569918
aI1481572150
aI1481013163
aI1480379824
aI1480427839
aI1480361576
aI1480483696
aI1480560534
aI1480357978
aI1480372762
aI1480406880
aI1480180087
aI1480180940
aI1480181767
aI1480019214
aI1479949055
aI1479883500
aI1479234533
aI1478644585
aI1478652160
aI1478654205
aI1478688614
aI1479280209
aI1478616676
aI1478481225
aI1478317888
aI1478373392
aI1478402733
aI1477822076
aI1477552437
aI1477411630
aI1477417157
aI1477252730
aI1477257323
aI1477295475
aI1477132211
aI1476942425
aI1476933540
aI1476936570
aI1476069494
aI1475928677
aI1475928962
aI1475728727
aI1475601095
aI1475454609
aI1475268339
aI1475190054
aI1475192536
aI1475117632
aI1475104642
aI1475104899
aI1475119279
aI1475030879
aI1474546275
aI1474551831
aI1474389853
aI1474409159
aI1474419934
aI1474475117
aI1474514093
aI1475699257
aI1474273126
aI1474206800
aI1474141850
aI1473782997
aI1473818424
aI1473857284
aI1473450082
aI1473077241
aI1473000948
aI1472880718
aI1472756597
aI1472771644
aI1472772887
aI1472627954
aI1472630254
aI1472658399
aI1472477844
aI1472079041
aI1472079661
aI1472090847
aI1471974041
aI1471788461
aI1471729024
aI1471730179
aI1471740236
aI1471722038
aI1471793039
aI1471560804
aI1471493865
aI1471496124
aI1471450477
aI1471096766
aI1471104873
aI1471106240
aI1471107505
aI1474639233
aI1470766750
aI1470757909
aI1469947772
aI1469895552
aI1469724352
aI1469383361
aI1469398842
aI1468973435
aI1468976476
aI1468998392
aI1468709641
aI1468281541
aI1468281961
aI1468282429
aI1468294852
aI1468190969
aI1468044811
aI1468046104
aI1468039306
aI1468039943
aI1468041815
aI1468042482
aI1467767002
aI1467496717
aI1467446417
aI1467414791
aI1467405778
aI1467406080
aI1467408682
aI1467411280
aI1467420666
aI1467427766
aI1467430218
aI1467433014
aI1467433425
aI1467433695
aI1467441898
aI1467453091
aI1467275588
aI1467293048
aI1466604104
aI1466100603
aI1466105875
aI1466106251
aI1465595115
aI1465697834
aI1465670687
aI1465403218
aI1465406180
aI1464971905
aI1464798179
aI1464799064
aI1463871311
aI1463339323
aI1463343278
aI1462222796
aI1462210612
aI1461170659
aI1461175518
aI1461180251
aI1459142363
aI1459146056
aI1459152010
aI1459395094
aI1458659013
aI1457394490
aI1457119606
aI1457304618
aI1455513731
aI1452559884
aI1452094160
aI1514709505
aI1514672326
aI1514672350
aI1514590436
aI1514573549
aI1514491670
aI1514429695
aI1514491552
aI1514406287
aI1514354784
aI1514358831
aI1514362094
aI1514403037
aI1515635422
aI1515644219
aI1514390166
aI1528418683
aI1514233503
aI1514441139
aI1514140970
aI1514094029
aI1514000694
aI1514008999
aI1514008900
aI1513970605
aI1513977484
aI1513979926
aI1514013131
aI1513953451
aI1513966373
aI1513921268
aI1513923298
aI1513917055
aI1513787641
aI1513628932
aI1513622800
aI1513564370
aI1513566417
aI1513638016
aI1513448026
aI1513449184
aI1513451060
aI1513462503
aI1513434705
aI1513432627
aI1513432919
aI1513444933
aI1513412868
aI1513448814
aI1513183172
aI1513204463
aI1513240160
aI1513111369
aI1513146640
aI1513059332
aI1513043224
aI1513030034
aI1512983522
aI1512957297
aI1512756072
aI1512762188
aI1512687970
aI1512688421
aI1512699404
aI1512623866
aI1512624067
aI1512579556
aI1512623370
aI1512664629
aI1512666404
aI1512568118
aI1512590319
aI1512410161
aI1512361565
aI1512286323
aI1512311114
aI1512258384
aI1512272137
aI1512214686
aI1512146444
aI1512068699
aI1512071297
aI1512065171
aI1512068916
aI1512003641
aI1512021199
aI1511993533
aI1511916876
aI1511919397
aI1512094212
aI1512094278
aI1511902725
aI1511892741
aI1511813860
aI1511837333
aI1512037812
aI1511785559
aI1511745399
aI1511729995
aI1511683158
aI1511640032
aI1511658593
aI1511618768
aI1511633980
aI1511596249
aI1511559887
aI1511546556
aI1511563144
aI1511563751
aI1511477644
aI1511478804
aI1511488768
aI1511399529
aI1511405486
aI1511449157
aI1511394742
aI1510957643
aI1510888101
aI1510895868
aI1510979035
aI1511027334
aI1510770423
aI1510773799
aI1510933800
aI1510708909
aI1510630336
aI1510621434
aI1510524286
aI1510533300
aI1510519344
aI1510383681
aI1510275772
aI1510350519
aI1510241579
aI1510121921
aI1510122068
aI1510103373
aI1510109880
aI1510087462
aI1510160034
aI1510073465
aI1510068805
aI1510078794
aI1509949026
aI1509950261
aI1509918356
aI1509921995
aI1509928520
aI1509928637
aI1509928869
aI1509929267
aI1509946970
aI1509859736
aI1509433432
aI1509397179
aI1509341914
aI1509342619
aI1509326325
aI1509336784
aI1509306130
aI1509236574
aI1509201240
aI1509204474
aI1509205925
aI1509213584
aI1509235135
aI1509239886
aI1509178207
aI1509857810
aI1508969625
aI1508971289
aI1508997184
aI1508895543
aI1508820689
aI1508827965
aI1508705795
aI1508706399
aI1508708559
aI1508738535
aI1508795541
aI1508801028
aI1508644002
aI1508700312
aI1508701295
aI1508697512
aI1508339635
aI1508339702
aI1508268619
aI1508207835
aI1508150253
aI1508126386
aI1508126486
aI1508175665
aI1508014766
aI1507993426
aI1507955528
aI1516231128
aI1507879666
aI1507834927
aI1507835405
aI1507835519
aI1507835594
aI1507837757
aI1507844244
aI1507844482
aI1507845955
aI1507936243
aI1507825068
aI1507932047
aI1507789231
aI1507772708
aI1507779370
aI1507763457
aI1507769309
aI1507837273
aI1507837309
aI1507837425
aI1507509488
aI1507463273
aI1507472626
aI1507479503
aI1507480537
aI1507478756
aI1507479157
aI1507479626
aI1507411716
aI1507405952
aI1507412306
aI1507590274
aI1507274560
aI1507239964
aI1507267192
aI1507421362
aI1507426470
aI1507217387
aI1507135976
aI1507142110
aI1507142282
aI1507148516
aI1507223797
aI1507254762
aI1507412663
aI1507660510
aI1509397255
aI1507125559
aI1507127916
aI1507054399
aI1507058417
aI1507052732
aI1518241678
aI1506985244
aI1506986776
aI1506987216
aI1507055513
aI1506904332
aI1506912924
aI1506923121
aI1506966671
aI1506970439
aI1506884255
aI1506809305
aI1506810559
aI1506817986
aI1506630643
aI1506631088
aI1506632534
aI1506634538
aI1506636585
aI1506637202
aI1506637558
aI1506638001
aI1506639958
aI1506641488
aI1506642152
aI1506642933
aI1506649765
aI1506650738
aI1506653632
aI1506559260
aI1506520649
aI1506583393
aI1506730899
aI1506355650
aI1506200691
aI1506200955
aI1506202148
aI1506194807
aI1506047704
aI1505995816
aI1505946690
aI1505947006
aI1505948897
aI1506023945
aI1506150457
aI1505887346
aI1505785975
aI1505784111
aI1505783353
aI1505803037
aI1505848365
aI1505769767
aI1505778830
aI1505776117
aI1505746143
aI1505782921
aI1505688741
aI1505689216
aI1505685846
aI1505627922
aI1505609524
aI1505587859
aI1505621375
aI1505415808
aI1505261109
aI1513822182
aI1513823032
aI1514316616
aI1505233105
aI1505179783
aI1505194304
aI1505139661
aI1505162104
aI1505124978
aI1504996710
aI1504997941
aI1504998553
aI1509951579
aI1504810831
aI1504839363
aI1504848289
aI1504858680
aI1504858727
aI1505085373
aI1504810765
aI1504757785
aI1504784027
aI1504712247
aI1504736999
aI1504737272
aI1504472603
aI1504457278
aI1504457393
aI1504417422
aI1504395891
aI1504381097
aI1504381100
aI1504381110
aI1504409633
aI1504331179
aI1504365156
aI1504220184
aI1504194776
aI1504084951
aI1504020979
aI1504023634
aI1504034409
aI1503970142
aI1503857572
aI1503885422
aI1503890690
aI1503850210
aI1503852497
aI1503852754
aI1503853770
aI1503855106
aI1503648342
aI1503658128
aI1503658190
aI1503699767
aI1503626382
aI1503627332
aI1503627351
aI1503627899
aI1503629674
aI1503608154
aI1503540820
aI1503500137
aI1503500527
aI1503502872
aI1503266345
aI1503036813
aI1503004579
aI1503028960
aI1503540289
aI1502947259
aI1502947976
aI1502951500
aI1502986870
aI1502854678
aI1502859548
aI1502805170
aI1502684233
aI1502796702
aI1502560824
aI1502627282
aI1502477610
aI1502412744
aI1502459014
aI1502415385
aI1502402315
aI1502371843
aI1502371972
aI1502300914
aI1502346962
aI1502277525
aI1502205361
aI1504384179
aI1502042355
aI1501930482
aI1501958961
aI1501933113
aI1501801143
aI1501701511
aI1501761894
aI1501767044
aI1501689041
aI1501690015
aI1501697639
aI1501698189
aI1501501266
aI1501559047
aI1501449399
aI1501370958
aI1501371374
aI1501371596
aI1501336700
aI1501269969
aI1501273899
aI1501281659
aI1501337107
aI1501269729
aI1501170311
aI1501115861
aI1501114123
aI1501083804
aI1501037287
aI1503465213
aI1500947375
aI1500869202
aI1500851154
aI1500859122
aI1500871152
aI1500965331
aI1500391608
aI1500338497
aI1500231612
aI1499829641
aI1499625607
aI1499624254
aI1499624840
aI1499618346
aI1499627135
aI1499586770
aI1499618367
aI1499542390
aI1499544270
aI1499546231
aI1499569761
aI1499578872
aI1499613353
aI1508359984
aI1499551374
aI1499619074
aI1499498574
aI1499482229
aI1499532776
aI1499476904
aI1499471775
aI1499472030
aI1499472348
aI1499059460
aI1499061518
aI1499015749
aI1498981786
aI1499039005
aI1498886651
aI1504972141
aI1498890877
aI1498425672
aI1498435944
aI1498120968
aI1498158025
aI1498101903
aI1497855386
aI1497846699
aI1497671253
aI1497670309
aI1497583082
aI1497502302
aI1497403094
aI1497414776
aI1497344886
aI1497247723
aI1497247743
aI1497200984
aI1497102532
aI1497078750
aI1497079683
aI1497092293
aI1497009073
aI1496739803
aI1496720239
aI1498312453
aI1496733355
aI1496747565
aI1496694412
aI1496608342
aI1496503060
aI1496503526
aI1496502181
aI1496463138
aI1496502002
aI1496114309
aI1495798597
aI1495804294
aI1495725206
aI1495731224
aI1495732369
aI1495671919
aI1495695452
aI1495647892
aI1495650630
aI1495625222
aI1495405467
aI1495379844
aI1495388959
aI1495395259
aI1495374273
aI1495231376
aI1495046063
aI1495046734
aI1495053016
aI1508542926
aI1508991139
aI1494719858
aI1494611733
aI1494615756
aI1494617198
aI1494620601
aI1494434391
aI1494374844
aI1494371997
aI1494313922
aI1494314920
aI1494262797
aI1494271034
aI1494274506
aI1494285522
aI1494285556
aI1494328126
aI1494336858
aI1494168185
aI1494020878
aI1494013739
aI1493865954
aI1493812878
aI1493793518
aI1493819548
aI1493576873
aI1493587412
aI1493490690
aI1493493411
aI1493493728
aI1493529643
aI1493329554
aI1493331094
aI1493267414
aI1493226753
aI1493229410
aI1493244086
aI1493184915
aI1493088490
aI1492897906
aI1492879853
aI1492562234
aI1492543899
aI1492544594
aI1492607590
aI1492608879
aI1492527965
aI1492521620
aI1492356125
aI1492414700
aI1492123277
aI1492120126
aI1491964673
aI1492042649
aI1491721402
aI1491792033
aI1491836833
aI1491628628
aI1491567089
aI1491519215
aI1491418650
aI1491255271
aI1491266643
aI1491009273
aI1490856231
aI1490883268
aI1490689519
aI1490422403
aI1490445364
aI1490384775
aI1490292027
aI1490293538
aI1490296262
aI1490297317
aI1490297530
aI1490297539
aI1490315910
aI1490322306
aI1490325821
aI1490330185
aI1490337820
aI1490361988
aI1490156923
aI1490045025
aI1489935094
aI1489935873
aI1489938807
aI1489703890
aI1489798985
aI1489674558
aI1489687633
aI1489505816
aI1489507067
aI1489510766
aI1489512836
aI1489517883
aI1489519268
aI1489519459
aI1489522341
aI1489535214
aI1489170686
aI1488945045
aI1488811453
aI1488811459
aI1488820324
aI1488330831
aI1488237583
aI1488316331
aI1488209484
aI1487959961
aI1487548998
aI1487313029
aI1487338001
aI1487182652
aI1487186535
aI1487027803
aI1487033249
aI1487003511
aI1487042949
aI1487006522
aI1486989327
aI1486993736
aI1486832938
aI1486835863
aI1486841319
aI1486774169
aI1486700065
aI1486679801
aI1486611256
aI1486615072
aI1486678044
aI1486586802
aI1486604507
aI1486604632
aI1486526086
aI1486499340
aI1486963773
aI1486963995
aI1486348363
aI1486361291
aI1486285044
aI1485992404
aI1486004660
aI1485640793
aI1485587093
aI1485319735
aI1485382300
aI1485372780
aI1485193102
aI1485206730
aI1484770280
aI1484615762
aI1484413453
aI1484378978
aI1484366651
aI1484086754
aI1484086787
aI1483892375
aI1483895213
aI1483831000
aI1483805984
aI1483661335
aI1483713349
aI1483713810
aI1483725871
aI1483726203
aI1483726921
aI1483498378
aI1483553326
aI1483565758
aI1483474898
aI1483477919
aI1543634493
aI1543582495
aI1543591250
aI1543595881
aI1543576824
aI1543548840
aI1543539401
aI1543524773
aI1543551829
aI1543512874
aI1543529934
aI1543531374
aI1543531827
aI1543514052
aI1543463670
aI1543454989
aI1543454331
aI1543457467
aI1543444595
aI1543526838
aI1543382774
aI1543386802
aI1543416370
aI1543378010
aI1543405365
aI1543409330
aI1543353513
aI1543355078
aI1543371969
aI1543350650
aI1543344179
aI1543344225
aI1543290520
aI1543290916
aI1543291913
aI1543292571
aI1543292632
aI1543325115
aI1543343094
aI1543354950
aI1543388993
aI1543389336
aI1543283172
aI1543275136
aI1543282617
aI1543291706
aI1543339415
aI1543274036
aI1543283951
aI1543299788
aI1543269879
aI1543270036
aI1543270836
aI1543273517
aI1543268745
aI1543268794
aI1543342157
aI1543342936
aI1543254190
aI1543247162
aI1543207416
aI1543590487
aI1543864538
aI1543189054
aI1543190562
aI1543194110
aI1543185177
aI1543201798
aI1543207277
aI1543210774
aI1543211280
aI1543252675
aI1543186778
aI1543180843
aI1543180239
aI1543087953
aI1543071771
aI1450303362
aI1449006901
aI1448751253
aI1448299529
aI1447449110
aI1447450651
aI1446314876
aI1443231814
aI1442951436
aI1441588944
aI1441340289
aI1436330700
aI1436320150
aI1433354862
aI1429712909
aI1429748603
aI1429764152
aI1483044220
aI1482720662
aI1482695244
aI1482702120
aI1482601759
aI1482613851
aI1482630719
aI1482676237
aI1482253289
aI1482098456
aI1482099517
aI1482099804
aI1482102467
aI1482166113
aI1481741748
aI1481667879
aI1481781243
aI1481613609
aI1481641606
aI1481692007
aI1481692214
aI1481832811
aI1481560005
aI1481561296
aI1481569918
aI1481572150
aI1481013163
aI1480379824
aI1480427839
aI1480361576
aI1480483696
aI1480560534
aI1480357978
aI1480372762
aI1480406880
aI1480180087
aI1480180940
aI1480181767
aI1480019214
aI1479949055
aI1479883500
aI1479234533
aI1478644585
aI1478652160
aI1478654205
aI1478688614
aI1479280209
aI1478616676
aI1478481225
aI1478317888
aI1478373392
aI1478402733
aI1477822076
aI1477552437
aI1477411630
aI1477417157
aI1477252730
aI1477257323
aI1477295475
aI1477132211
aI1476942425
aI1476933540
aI1476936570
aI1476069494
aI1475928677
aI1475928962
aI1475728727
aI1475601095
aI1475454609
aI1475268339
aI1475190054
aI1475192536
aI1475117632
aI1475104642
aI1475104899
aI1475119279
aI1475030879
aI1474546275
aI1474551831
aI1474389853
aI1474409159
aI1474419934
aI1474475117
aI1474514093
aI1475699257
aI1474273126
aI1474206800
aI1474141850
aI1473782997
aI1473818424
aI1473857284
aI1473450082
aI1473077241
aI1473000948
aI1472880718
aI1472756597
aI1472771644
aI1472772887
aI1472627954
aI1472630254
aI1472658399
aI1472477844
aI1472079041
aI1472079661
aI1472090847
aI1471974041
aI1471788461
aI1471729024
aI1471730179
aI1471740236
aI1471722038
aI1471793039
aI1471560804
aI1471493865
aI1471496124
aI1471450477
aI1471096766
aI1471104873
aI1471106240
aI1471107505
aI1474639233
aI1470766750
aI1470757909
aI1469947772
aI1469895552
aI1469724352
aI1469383361
aI1469398842
aI1468973435
aI1468976476
aI1468998392
aI1468709641
aI1468281541
aI1468281961
aI1468282429
aI1468294852
aI1468190969
aI1468044811
aI1468046104
aI1468039306
aI1468039943
aI1468041815
aI1468042482
aI1467767002
aI1467496717
aI1467446417
aI1467414791
aI1467405778
aI1467406080
aI1467408682
aI1467411280
aI1467420666
aI1467427766
aI1467430218
aI1467433014
aI1467433425
aI1467433695
aI1467441898
aI1467453091
aI1467275588
aI1467293048
aI1466604104
aI1466100603
aI1466105875
aI1466106251
aI1465595115
aI1465697834
aI1465670687
aI1465403218
aI1465406180
aI1464971905
aI1464798179
aI1464799064
aI1463871311
aI1463339323
aI1463343278
aI1462222796
aI1462210612
aI1461170659
aI1461175518
aI1461180251
aI1459142363
aI1459146056
aI1459152010
aI1459395094
aI1458659013
aI1457394490
aI1457119606
aI1457304618
aI1455513731
aI1452559884
aI1452094160
aI1514709505
aI1514672326
aI1514672350
aI1514590436
aI1514573549
aI1514491670
aI1514429695
aI1514491552
aI1514406287
aI1514354784
aI1514358831
aI1514362094
aI1514403037
aI1515635422
aI1515644219
aI1514390166
aI1528418683
aI1514233503
aI1514441139
aI1514140970
aI1514094029
aI1514000694
aI1514008999
aI1514008900
aI1513970605
aI1513977484
aI1513979926
aI1514013131
aI1513953451
aI1513966373
aI1513921268
aI1513923298
aI1513917055
aI1513787641
aI1513628932
aI1513622800
aI1513564370
aI1513566417
aI1513638016
aI1513448026
aI1513449184
aI1513451060
aI1513462503
aI1513434705
aI1513432627
aI1513432919
aI1513444933
aI1513412868
aI1513448814
aI1513183172
aI1513204463
aI1513240160
aI1513111369
aI1513146640
aI1513059332
aI1513043224
aI1513030034
aI1512983522
aI1512957297
aI1512756072
aI1512762188
aI1512687970
aI1512688421
aI1512699404
aI1512623866
aI1512624067
aI1512579556
aI1512623370
aI1512664629
aI1512666404
aI1512568118
aI1512590319
aI1512410161
aI1512361565
aI1512286323
aI1512311114
aI1512258384
aI1512272137
aI1512214686
aI1512146444
aI1512068699
aI1512071297
aI1512065171
aI1512068916
aI1512003641
aI1512021199
aI1511993533
aI1511916876
aI1511919397
aI1512094212
aI1512094278
aI1511902725
aI1511892741
aI1511813860
aI1511837333
aI1512037812
aI1511785559
aI1511745399
aI1511729995
aI1511683158
aI1511640032
aI1511658593
aI1511618768
aI1511633980
aI1511596249
aI1511559887
aI1511546556
aI1511563144
aI1511563751
aI1511477644
aI1511478804
aI1511488768
aI1511399529
aI1511405486
aI1511449157
aI1511394742
aI1510957643
aI1510888101
aI1510895868
aI1510979035
aI1511027334
aI1510770423
aI1510773799
aI1510933800
aI1510708909
aI1510630336
aI1510621434
aI1510524286
aI1510533300
aI1510519344
aI1510383681
aI1510275772
aI1510350519
aI1510241579
aI1510121921
aI1510122068
aI1510103373
aI1510109880
aI1510087462
aI1510160034
aI1510073465
aI1510068805
aI1510078794
aI1509949026
aI1509950261
aI1509918356
aI1509921995
aI1509928520
aI1509928637
aI1509928869
aI1509929267
aI1509946970
aI1509859736
aI1509433432
aI1509397179
aI1509341914
aI1509342619
aI1509326325
aI1509336784
aI1509306130
aI1509236574
aI1509201240
aI1509204474
aI1509205925
aI1509213584
aI1509235135
aI1509239886
aI1509178207
aI1509857810
aI1508969625
aI1508971289
aI1508997184
aI1508895543
aI1508820689
aI1508827965
aI1508705795
aI1508706399
aI1508708559
aI1508738535
aI1508795541
aI1508801028
aI1508644002
aI1508700312
aI1508701295
aI1508697512
aI1508339635
aI1508339702
aI1508268619
aI1508207835
aI1508150253
aI1508126386
aI1508126486
aI1508175665
aI1508014766
aI1507993426
aI1507955528
aI1516231128
aI1507879666
aI1507834927
aI1507835405
aI1507835519
aI1507835594
aI1507837757
aI1507844244
aI1507844482
aI1507845955
aI1507936243
aI1507825068
aI1507932047
aI1507789231
aI1507772708
aI1507779370
aI1507763457
aI1507769309
aI1507837273
aI1507837309
aI1507837425
aI1507509488
aI1507463273
aI1507472626
aI1507479503
aI1507480537
aI1507478756
aI1507479157
aI1507479626
aI1507411716
aI1507405952
aI1507412306
aI1507590274
aI1507274560
aI1507239964
aI1507267192
aI1507421362
aI1507426470
aI1507217387
aI1507135976
aI1507142110
aI1507142282
aI1507148516
aI1507223797
aI1507254762
aI1507412663
aI1507660510
aI1509397255
aI1507125559
aI1507127916
aI1507054399
aI1507058417
aI1507052732
aI1518241678
aI1506985244
aI1506986776
aI1506987216
aI1507055513
aI1506904332
aI1506912924
aI1506923121
aI1506966671
aI1506970439
aI1506884255
aI1506809305
aI1506810559
aI1506817986
aI1506630643
aI1506631088
aI1506632534
aI1506634538
aI1506636585
aI1506637202
aI1506637558
aI1506638001
aI1506639958
aI1506641488
aI1506642152
aI1506642933
aI1506649765
aI1506650738
aI1506653632
aI1506559260
aI1506520649
aI1506583393
aI1506730899
aI1506355650
aI1506200691
aI1506200955
aI1506202148
aI1506194807
aI1506047704
aI1505995816
aI1505946690
aI1505947006
aI1505948897
aI1506023945
aI1506150457
aI1505887346
aI1505785975
aI1505784111
aI1505783353
aI1505803037
aI1505848365
aI1505769767
aI1505778830
aI1505776117
aI1505746143
aI1505782921
aI1505688741
aI1505689216
aI1505685846
aI1505627922
aI1505609524
aI1505587859
aI1505621375
aI1505415808
aI1505261109
aI1513822182
aI1513823032
aI1514316616
aI1505233105
aI1505179783
aI1505194304
aI1505139661
aI1505162104
aI1505124978
aI1504996710
aI1504997941
aI1504998553
aI1509951579
aI1504810831
aI1504839363
aI1504848289
aI1504858680
aI1504858727
aI1505085373
aI1504810765
aI1504757785
aI1504784027
aI1504712247
aI1504736999
aI1504737272
aI1504472603
aI1504457278
aI1504457393
aI1504417422
aI1504395891
aI1504381097
aI1504381100
aI1504381110
aI1504409633
aI1504331179
aI1504365156
aI1504220184
aI1504194776
aI1504084951
aI1504020979
aI1504023634
aI1504034409
aI1503970142
aI1503857572
aI1503885422
aI1503890690
aI1503850210
aI1503852497
aI1503852754
aI1503853770
aI1503855106
aI1503648342
aI1503658128
aI1503658190
aI1503699767
aI1503626382
aI1503627332
aI1503627351
aI1503627899
aI1503629674
aI1503608154
aI1503540820
aI1503500137
aI1503500527
aI1503502872
aI1503266345
aI1503036813
aI1503004579
aI1503028960
aI1503540289
aI1502947259
aI1502947976
aI1502951500
aI1502986870
aI1502854678
aI1502859548
aI1502805170
aI1502684233
aI1502796702
aI1502560824
aI1502627282
aI1502477610
aI1502412744
aI1502459014
aI1502415385
aI1502402315
aI1502371843
aI1502371972
aI1502300914
aI1502346962
aI1502277525
aI1502205361
aI1504384179
aI1502042355
aI1501930482
aI1501958961
aI1501933113
aI1501801143
aI1501701511
aI1501761894
aI1501767044
aI1501689041
aI1501690015
aI1501697639
aI1501698189
aI1501501266
aI1501559047
aI1501449399
aI1501370958
aI1501371374
aI1501371596
aI1501336700
aI1501269969
aI1501273899
aI1501281659
aI1501337107
aI1501269729
aI1501170311
aI1501115861
aI1501114123
aI1501083804
aI1501037287
aI1503465213
aI1500947375
aI1500869202
aI1500851154
aI1500859122
aI1500871152
aI1500965331
aI1500391608
aI1500338497
aI1500231612
aI1499829641
aI1499625607
aI1499624254
aI1499624840
aI1499618346
aI1499627135
aI1499586770
aI1499618367
aI1499542390
aI1499544270
aI1499546231
aI1499569761
aI1499578872
aI1499613353
aI1508359984
aI1499551374
aI1499619074
aI1499498574
aI1499482229
aI1499532776
aI1499476904
aI1499471775
aI1499472030
aI1499472348
aI1499059460
aI1499061518
aI1499015749
aI1498981786
aI1499039005
aI1498886651
aI1504972141
aI1498890877
aI1498425672
aI1498435944
aI1498120968
aI1498158025
aI1498101903
aI1497855386
aI1497846699
aI1497671253
aI1497670309
aI1497583082
aI1497502302
aI1497403094
aI1497414776
aI1497344886
aI1497247723
aI1497247743
aI1497200984
aI1497102532
aI1497078750
aI1497079683
aI1497092293
aI1497009073
aI1496739803
aI1496720239
aI1498312453
aI1496733355
aI1496747565
aI1496694412
aI1496608342
aI1496503060
aI1496503526
aI1496502181
aI1496463138
aI1496502002
aI1496114309
aI1495798597
aI1495804294
aI1495725206
aI1495731224
aI1495732369
aI1495671919
aI1495695452
aI1495647892
aI1495650630
aI1495625222
aI1495405467
aI1495379844
aI1495388959
aI1495395259
aI1495374273
aI1495231376
aI1495046063
aI1495046734
aI1495053016
aI1508542926
aI1508991139
aI1494719858
aI1494611733
aI1494615756
aI1494617198
aI1494620601
aI1494434391
aI1494374844
aI1494371997
aI1494313922
aI1494314920
aI1494262797
aI1494271034
aI1494274506
aI1494285522
aI1494285556
aI1494328126
aI1494336858
aI1494168185
aI1494020878
aI1494013739
aI1493865954
aI1493812878
aI1493793518
aI1493819548
aI1493576873
aI1493587412
aI1493490690
aI1493493411
aI1493493728
aI1493529643
aI1493329554
aI1493331094
aI1493267414
aI1493226753
aI1493229410
aI1493244086
aI1493184915
aI1493088490
aI1492897906
aI1492879853
aI1492562234
aI1492543899
aI1492544594
aI1492607590
aI1492608879
aI1492527965
aI1492521620
aI1492356125
aI1492414700
aI1492123277
aI1492120126
aI1491964673
aI1492042649
aI1491721402
aI1491792033
aI1491836833
aI1491628628
aI1491567089
aI1491519215
aI1491418650
aI1491255271
aI1491266643
aI1491009273
aI1490856231
aI1490883268
aI1490689519
aI1490422403
aI1490445364
aI1490384775
aI1490292027
aI1490293538
aI1490296262
aI1490297317
aI1490297530
aI1490297539
aI1490315910
aI1490322306
aI1490325821
aI1490330185
aI1490337820
aI1490361988
aI1490156923
aI1490045025
aI1489935094
aI1489935873
aI1489938807
aI1489703890
aI1489798985
aI1489674558
aI1489687633
aI1489505816
aI1489507067
aI1489510766
aI1489512836
aI1489517883
aI1489519268
aI1489519459
aI1489522341
aI1489535214
aI1489170686
aI1488945045
aI1488811453
aI1488811459
aI1488820324
aI1488330831
aI1488237583
aI1488316331
aI1488209484
aI1487959961
aI1487548998
aI1487313029
aI1487338001
aI1487182652
aI1487186535
aI1487027803
aI1487033249
aI1487003511
aI1487042949
aI1487006522
aI1486989327
aI1486993736
aI1486832938
aI1486835863
aI1486841319
aI1486774169
aI1486700065
aI1486679801
aI1486611256
aI1486615072
aI1486678044
aI1486586802
aI1486604507
aI1486604632
aI1486526086
aI1486499340
aI1486963773
aI1486963995
aI1486348363
aI1486361291
aI1486285044
aI1485992404
aI1486004660
aI1485640793
aI1485587093
aI1485319735
aI1485382300
aI1485372780
aI1485193102
aI1485206730
aI1484770280
aI1484615762
aI1484413453
aI1484378978
aI1484366651
aI1484086754
aI1484086787
aI1483892375
aI1483895213
aI1483831000
aI1483805984
aI1483661335
aI1483713349
aI1483713810
aI1483725871
aI1483726203
aI1483726921
aI1483498378
aI1483553326
aI1483565758
aI1483474898
aI1483477919
aI1543634493
aI1543582495
aI1543591250
aI1543595881
aI1543576824
aI1543548840
aI1543539401
aI1543524773
aI1543551829
aI1543512874
aI1543529934
aI1543531374
aI1543531827
aI1543514052
aI1543463670
aI1543454989
aI1543454331
aI1543457467
aI1543444595
aI1543526838
aI1543382774
aI1543386802
aI1543416370
aI1543378010
aI1543405365
aI1543409330
aI1543353513
aI1543355078
aI1543371969
aI1543350650
aI1543344179
aI1543344225
aI1543290520
aI1543290916
aI1543291913
aI1543292571
aI1543292632
aI1543325115
aI1543343094
aI1543354950
aI1543388993
aI1543389336
aI1543283172
aI1543275136
aI1543282617
aI1543291706
aI1543339415
aI1543274036
aI1543283951
aI1543299788
aI1543269879
aI1543270036
aI1543270836
aI1543273517
aI1543268745
aI1543268794
aI1543342157
aI1543342936
aI1543254190
aI1543247162
aI1543207416
aI1543590487
aI1543864538
aI1543189054
aI1543190562
aI1543194110
aI1543185177
aI1543201798
aI1543207277
aI1543210774
aI1543211280
aI1543252675
aI1543186778
aI1543180843
aI1543180239
aI1543087953
aI1543071771
a.