(lp0
I1493519296
aI1493181589
aI1493679045
aI1493076121
aI1492734739
aI1488245512
aI1488224997
aI1486958431
aI1486256086
aI1485899882
aI1485284270
aI1485313766
aI1484879217
aI1484023557
aI1484026397
aI1484036532
aI1483900435
aI1490061195
aI1489838307
aI1495736547
aI1495573260
aI1525100756
aI1525101200
aI1525165866
aI1524788510
aI1524759164
aI1524762754
aI1524791429
aI1524713645
aI1524522031
aI1524451202
aI1524791111
aI1524797447
aI1524283079
aI1524298349
aI1524093695
aI1523899227
aI1523858526
aI1523837135
aI1523770205
aI1523733203
aI1523733242
aI1523751402
aI1523648827
aI1523604768
aI1523572075
aI1523500567
aI1523500945
aI1523502214
aI1523506941
aI1523405302
aI1523388111
aI1523291079
aI1523290360
aI1523291606
aI1523291841
aI1523292123
aI1523286976
aI1523289391
aI1523292322
aI1523243961
aI1523119754
aI1523111403
aI1523079509
aI1523028572
aI1523028786
aI1523039691
aI1523040588
aI1523042755
aI1523061977
aI1523022157
aI1523033591
aI1523033684
aI1523043110
aI1523049016
aI1523059516
aI1523060694
aI1522978285
aI1522866525
aI1535759507
aI1535759782
aI1519770264
aI1519621798
aI1519588229
aI1519530151
aI1519362914
aI1519427138
aI1519332591
aI1519335007
aI1519352353
aI1519433974
aI1519231245
aI1519247352
aI1519256656
aI1519256990
aI1519220468
aI1519219287
aI1519176387
aI1519055952
aI1518723884
aI1518638938
aI1518639487
aI1518638525
aI1518636698
aI1518583600
aI1518615931
aI1518624208
aI1518661875
aI1518596213
aI1518300562
aI1518379423
aI1518211850
aI1518215044
aI1518241566
aI1518153683
aI1518154906
aI1518154919
aI1518137491
aI1518138263
aI1518140671
aI1518140805
aI1518146657
aI1518148671
aI1518176945
aI1518177785
aI1518141462
aI1518111295
aI1518111666
aI1518111953
aI1518112561
aI1518065024
aI1518050860
aI1518050982
aI1518051458
aI1518052860
aI1517968556
aI1517492723
aI1517424891
aI1517434580
aI1517460735
aI1517461102
aI1517156493
aI1517111757
aI1517098273
aI1517099978
aI1516983683
aI1516988717
aI1516990901
aI1516994311
aI1517003974
aI1517005070
aI1517005342
aI1517010797
aI1517012086
aI1517012123
aI1517020324
aI1517029849
aI1517033948
aI1517135384
aI1517194968
aI1517403370
aI1517448082
aI1516901976
aI1516769576
aI1516672528
aI1516153398
aI1516085409
aI1516086268
aI1516067897
aI1515963715
aI1515870390
aI1515827651
aI1515633433
aI1515547601
aI1515548017
aI1515564194
aI1515545253
aI1515563585
aI1515457671
aI1515459375
aI1515466590
aI1515444883
aI1515470960
aI1515302514
aI1515303112
aI1515303944
aI1515289901
aI1515027334
aI1514786784
aI1530331511
aI1530332354
aI1530335727
aI1530336849
aI1530340221
aI1530352101
aI1530352475
aI1530355614
aI1530373317
aI1531108009
aI1530323526
aI1530215841
aI1530157650
aI1530158016
aI1530158509
aI1529979899
aI1529976540
aI1529963242
aI1529938673
aI1529891601
aI1529893268
aI1529893783
aI1529894643
aI1529896634
aI1529892374
aI1529898911
aI1529901658
aI1522377345
aI1522410903
aI1522412623
aI1522413053
aI1522348806
aI1522348935
aI1522359505
aI1522300615
aI1522300771
aI1522301364
aI1522324290
aI1522331543
aI1522338857
aI1522346932
aI1522346945
aI1522348079
aI1522353020
aI1523571487
aI1522254028
aI1522258514
aI1522264208
aI1522198275
aI1522141533
aI1522162269
aI1522099542
aI1523395518
aI1521994333
aI1521859902
aI1522118066
aI1521740135
aI1521744925
aI1521729484
aI1521731043
aI1521731347
aI1521731961
aI1521736254
aI1521395576
aI1521315454
aI1521284373
aI1521288245
aI1521256063
aI1521256298
aI1521174968
aI1521152837
aI1521154283
aI1521077174
aI1521108944
aI1521071213
aI1521051926
aI1521066904
aI1521079290
aI1521024952
aI1520923813
aI1520704376
aI1520536026
aI1520537009
aI1520538675
aI1520539759
aI1520489467
aI1520526564
aI1520476513
aI1520391667
aI1520392048
aI1520423140
aI1520343420
aI1520281673
aI1520040781
aI1520056900
aI1519972447
aI1519923561
aI1524787770
aI1527756065
aI1527738352
aI1527777551
aI1527734014
aI1527698912
aI1527709876
aI1527720318
aI1527720439
aI1527742383
aI1527770108
aI1527574654
aI1527540540
aI1527225398
aI1527199834
aI1527203189
aI1527118920
aI1527041973
aI1527037793
aI1527020041
aI1526871052
aI1526513250
aI1526310552
aI1526255677
aI1526193867
aI1526204904
aI1526284635
aI1526175941
aI1526158419
aI1526158502
aI1526159033
aI1526159453
aI1526159621
aI1526178708
aI1526159571
aI1526141733
aI1526049836
aI1526020232
aI1525976695
aI1526002254
aI1525925221
aI1525908531
aI1525909911
aI1525912994
aI1525919785
aI1538344785
aI1546316026
aI1546299246
aI1546270521
aI1546165965
aI1546169018
aI1546112377
aI1546120567
aI1546141971
aI1546107584
aI1546203130
aI1546036555
aI1546036745
aI1546026645
aI1545922373
aI1545924657
aI1545935600
aI1545888127
aI1545852998
aI1545846329
aI1545808534
aI1545809840
aI1545792818
aI1545795244
aI1545800735
aI1545838917
aI1545836515
aI1545751716
aI1545782051
aI1545715774
aI1545716126
aI1545708113
aI1545743692
aI1545749532
aI1545757052
aI1545702325
aI1545703570
aI1545684067
aI1545606794
aI1545553534
aI1545553648
aI1545553649
aI1545585794
aI1545458760
aI1545442310
aI1545442807
aI1545448927
aI1545462866
aI1545467609
aI1545499835
aI1545536768
aI1545537057
aI1545407954
aI1545372048
aI1545368643
aI1545365928
aI1545334540
aI1545275256
aI1545270631
aI1545271224
aI1545268561
aI1545264685
aI1545254890
aI1545255033
aI1545255509
aI1545255592
aI1545259024
aI1545272393
aI1545330669
aI1545392702
aI1545250148
aI1545250221
aI1545250469
aI1545268484
aI1545269447
aI1545269857
aI1545278743
aI1545246493
aI1545198731
aI1545165418
aI1545173696
aI1545147701
aI1545106560
aI1545107270
aI1545108363
aI1545096658
aI1545097518
aI1545076687
aI1545072706
aI1545081850
aI1545019378
aI1544922889
aI1544895438
aI1544896355
aI1544822807
aI1544822071
aI1544824119
aI1544824147
aI1544763765
aI1544770512
aI1544746062
aI1544747657
aI1544653601
aI1544663431
aI1544557598
aI1544500197
aI1544486004
aI1544513139
aI1544545861
aI1544418816
aI1544421616
aI1544444228
aI1544373323
aI1544300468
aI1544228526
aI1544222613
aI1544222945
aI1544224513
aI1544227354
aI1544242356
aI1544294959
aI1544186912
aI1544156031
aI1544156505
aI1544156747
aI1544166931
aI1544203404
aI1544129925
aI1544137756
aI1544138305
aI1544150960
aI1544256400
aI1544071184
aI1544026443
aI1544019996
aI1544020255
aI1543963878
aI1543967604
aI1543967614
aI1543969339
aI1543969485
aI1543867524
aI1543868495
aI1543862970
aI1543778175
aI1543790897
aI1543751886
a.