(lp0
I1446052544
aI1442627507
aI1434567472
aI1434679766
aI1433812718
aI1477242933
aI1477209871
aI1473778432
aI1471928397
aI1459519966
aI1514583182
aI1514582026
aI1514350321
aI1514350747
aI1514359955
aI1514391545
aI1514401613
aI1514331171
aI1513611103
aI1513554759
aI1513479185
aI1513375207
aI1513542215
aI1513187278
aI1513052741
aI1513060976
aI1513063645
aI1513069620
aI1513626346
aI1512230092
aI1512160738
aI1511628845
aI1511279477
aI1510685472
aI1510720606
aI1510619183
aI1510853138
aI1520214748
aI1510530063
aI1510096122
aI1509873057
aI1509741152
aI1509818434
aI1514391859
aI1509421801
aI1509319302
aI1509125372
aI1508886017
aI1508527253
aI1507869897
aI1507905683
aI1507659192
aI1507364058
aI1506628711
aI1506264081
aI1506117448
aI1506124645
aI1506132902
aI1505527483
aI1505509483
aI1504943935
aI1504042673
aI1503334214
aI1501852472
aI1501349726
aI1499996477
aI1495944937
aI1490580853
aI1488652609
aI1488238881
aI1488240681
aI1487313420
aI1485975211
aI1485792516
aI1484769394
aI1483975448
aI1546221694
aI1546240400
aI1546191906
aI1546192046
aI1546192245
aI1546193653
aI1546222278
aI1546222392
aI1546232834
aI1546153426
aI1546155750
aI1546111532
aI1546055842
aI1546055957
aI1546057971
aI1546044317
aI1546036516
aI1546037203
aI1546000066
aI1546001473
aI1546016755
aI1546047088
aI1546052481
aI1546053824
aI1545987300
aI1546017757
aI1546001202
aI1545953822
aI1546099183
aI1545946796
aI1545648006
aI1545591114
aI1545592684
aI1545467432
aI1547802799
aI1545229380
aI1545135993
aI1545065309
aI1545085335
aI1544914430
aI1544985942
aI1544727215
aI1544742627
aI1546059006
aI1544669460
aI1544641124
aI1544543520
aI1544551293
aI1544491545
aI1544491454
aI1544491444
aI1544491438
aI1544451898
aI1544280629
aI1544218906
aI1544119197
aI1544114614
aI1544111860
aI1544124657
aI1544143269
aI1544028584
aI1544054907
aI1543999631
aI1543869296
aI1543879515
aI1543887745
aI1544570050
aI1543741912
aI1543708857
aI1543709128
aI1543597608
aI1543600375
aI1543614482
aI1543636090
aI1543678359
aI1543813047
aI1543831345
aI1543526325
aI1543516867
aI1543563971
aI1543679122
aI1543532011
aI1543294837
aI1543261275
aI1543267537
aI1543023783
aI1542990220
aI1542995939
aI1543098275
aI1542831911
aI1542785963
aI1542786932
aI1542766238
aI1542748724
aI1542749663
aI1542829894
aI1542689033
aI1542679175
aI1542484612
aI1542482759
aI1542484059
aI1542486029
aI1542421135
aI1542304506
aI1542213397
aI1542196815
aI1542196995
aI1542040420
aI1542045410
aI1542045946
aI1542049159
aI1541997401
aI1541886079
aI1541961114
aI1541899679
aI1541854652
aI1541857153
aI1541859266
aI1541859621
aI1541859715
aI1541872947
aI1541884737
aI1541884895
aI1542486959
aI1542508299
aI1541739218
aI1541711520
aI1541631983
aI1541522207
aI1541522563
aI1541522655
aI1541523100
aI1541529504
aI1541488014
aI1541391195
aI1541391408
aI1541391666
aI1541395403
aI1541436671
aI1541436680
aI1541354005
aI1541354707
aI1541363328
aI1541311544
aI1541353818
aI1541379240
aI1541185551
aI1541097365
aI1541098056
aI1541122141
aI1541122539
aI1541086331
aI1540926472
aI1540758718
aI1540687728
aI1540694736
aI1540695469
aI1540569222
aI1540648797
aI1540495072
aI1540430606
aI1540385100
aI1540385270
aI1540348254
aI1540348692
aI1540354618
aI1540386140
aI1540386397
aI1540393038
aI1540334763
aI1540142211
aI1540154829
aI1540164984
aI1540181648
aI1540040290
aI1540040828
aI1539994992
aI1539915521
aI1539921872
aI1539870400
aI1539781775
aI1539789752
aI1539717307
aI1539691519
aI1539692927
aI1539642388
aI1539544364
aI1539536063
aI1539560798
aI1539522026
aI1539473091
aI1539473909
aI1539480284
aI1539463721
aI1539464576
aI1539471195
aI1540569420
aI1539329703
aI1539347793
aI1539345218
aI1539351809
aI1539358106
aI1539227604
aI1539228888
aI1539231767
aI1539236823
aI1539229507
aI1539230484
aI1539495395
aI1539052917
aI1539025402
aI1538948574
aI1538949947
aI1538997751
aI1538913283
aI1538884360
aI1538888259
aI1538886135
aI1538896715
aI1538679463
aI1538683427
aI1538687928
aI1538689255
aI1538689633
aI1538707248
aI1538668307
aI1538615982
aI1538583296
aI1538546346
aI1538572915
aI1538370789
aI1538344945
aI1537984970
aI1538677203
aI1537807056
aI1538151403
aI1537804532
aI1537660189
aI1537667144
aI1537926732
aI1537646604
aI1537473348
aI1537452389
aI1537417853
aI1537418517
aI1537224093
aI1537194787
aI1537206378
aI1537193715
aI1537196851
aI1537200401
aI1537143635
aI1537144032
aI1537147074
aI1537130416
aI1536984288
aI1537034462
aI1536905200
aI1536938251
aI1536952542
aI1536895847
aI1536863549
aI1536812331
aI1536604867
aI1536619316
aI1536622740
aI1536625082
aI1536634827
aI1536647087
aI1536593426
aI1536591444
aI1536437452
aI1536391550
aI1536400318
aI1536415969
aI1536421559
aI1536409586
aI1536345559
aI1536331826
aI1536337804
aI1536339434
aI1536344926
aI1536350141
aI1536207440
aI1536164443
aI1535993490
aI1536000542
aI1536003771
aI1536249132
aI1535809643
aI1535865565
aI1535583826
aI1535564616
aI1535493784
aI1535515696
aI1535338324
aI1535325954
aI1535251501
aI1535221304
aI1535126354
aI1535130003
aI1535150236
aI1535078548
aI1535073419
aI1534997359
aI1534984406
aI1534986500
aI1534935553
aI1534899061
aI1534733552
aI1534733755
aI1534733941
aI1534735629
aI1534737292
aI1534740226
aI1534740542
aI1534740700
aI1534776304
aI1534705297
aI1534621319
aI1534635969
aI1534648928
aI1534471753
aI1534287295
aI1534290159
aI1534290618
aI1534280680
aI1534281708
aI1534282315
aI1534262244
aI1533993819
aI1533881627
aI1533776562
aI1533754876
aI1533759865
aI1533760021
aI1533739268
aI1533641723
aI1533636846
aI1533566146
aI1533567266
aI1533573765
aI1533581030
aI1533538648
aI1533540200
aI1533557570
aI1533519173
aI1533224258
aI1533230770
aI1533153672
aI1533161315
aI1533076528
aI1533066585
aI1532992534
aI1533006831
aI1533039797
aI1533039881
aI1533040406
aI1533060750
aI1532982996
aI1532998438
aI1532982751
aI1532970219
aI1532932212
aI1539132729
aI1532719725
aI1532616447
aI1532533676
aI1532469293
aI1532487263
aI1532517380
aI1536518054
aI1538950685
aI1532293221
aI1532182223
aI1532183830
aI1532189370
aI1532146895
aI1532156623
aI1531934743
aI1531801862
aI1531756314
aI1531757095
aI1531758286
aI1531713282
aI1531629661
aI1531429175
aI1531434199
aI1531257664
aI1531287686
aI1531169508
aI1531174389
aI1531330229
aI1531330350
aI1531337123
aI1531161538
aI1531333090
aI1531009532
aI1531013473
aI1531057021
aI1531060604
aI1531060848
aI1530907342
aI1530802740
aI1530760507
aI1530777008
aI1530811185
aI1537336066
aI1530760612
aI1530558017
aI1530507319
aI1530553024
aI1530417769
aI1530374259
aI1530383467
aI1530417078
aI1530204151
aI1530085760
aI1529958020
aI1529858069
aI1529681075
aI1529684287
aI1529533114
aI1529553627
aI1529553941
aI1529554258
aI1529604323
aI1530085442
aI1529500767
aI1529503558
aI1529505533
aI1529364373
aI1529363889
aI1529384841
aI1529276604
aI1529327207
aI1536814343
aI1529267367
aI1529191440
aI1529199963
aI1529203131
aI1529253983
aI1529120067
aI1528909379
aI1528909942
aI1528910000
aI1528925010
aI1528925912
aI1528926809
aI1528927374
aI1528916660
aI1528797236
aI1528803471
aI1528807538
aI1528763624
aI1528476913
aI1528475281
aI1528432562
aI1528436666
aI1528437164
aI1528473395
aI1528504111
aI1528403361
aI1528403485
aI1528415219
aI1528288399
aI1528227653
aI1528251027
aI1528131428
aI1527915661
aI1527718962
aI1527719524
aI1527720877
aI1527728208
aI1527751789
aI1528192258
aI1527556727
aI1527560299
aI1527513795
aI1527369504
aI1527376098
aI1536976297
aI1527170953
aI1527121998
aI1527034653
aI1536160981
aI1526712838
aI1526713059
aI1526737231
aI1526388781
aI1526161652
aI1526043795
aI1526047494
aI1526051668
aI1526047738
aI1526368257
aI1526077372
aI1525977508
aI1526000661
aI1533617318
aI1533617367
aI1525674996
aI1525325745
aI1525043561
aI1524881187
aI1524884504
aI1524884818
aI1524884972
aI1524866035
aI1524881667
aI1524843985
aI1524596019
aI1524595917
aI1524598994
aI1524621971
aI1524632884
aI1524636824
aI1524079339
aI1524140432
aI1523861633
aI1523861686
aI1523640410
aI1523654760
aI1523547395
aI1523547860
aI1523548054
aI1523570669
aI1523897324
aI1523898830
aI1523900830
aI1523901377
aI1523071854
aI1523072661
aI1523073257
aI1524532467
aI1522970407
aI1522973179
aI1522975640
aI1522975669
aI1523020540
aI1523120948
aI1523896646
aI1523897412
aI1534225373
aI1536554133
aI1522879134
aI1522951052
aI1522753055
aI1522470415
aI1522376472
aI1522242769
aI1522243144
aI1522206411
aI1522478304
aI1522138553
aI1522153529
aI1522167777
aI1522170255
aI1522172040
aI1522178368
aI1522178579
aI1528825439
aI1521911637
aI1521796126
aI1521501183
aI1521555840
aI1521387770
aI1521318251
aI1521310045
aI1520948491
aI1520715473
aI1520377045
aI1520310775
aI1520020797
aI1519749853
aI1519433783
aI1519284510
aI1519295372
aI1519405204
aI1519161107
aI1518729342
aI1518750843
aI1518754013
aI1518466461
aI1518469028
aI1518438168
aI1518364986
aI1518372510
aI1518384423
aI1518539980
aI1517600197
aI1517543510
aI1517617157
aI1517172259
aI1517195823
aI1517232699
aI1516908882
aI1516763329
aI1516622970
aI1516600300
aI1516637039
aI1516562533
aI1516473270
aI1515949969
aI1515734277
aI1515735358
aI1515657485
aI1515695103
aI1515265320
aI1515268476
a.