(lp0
I1451686549
aI1451482288
aI1451451121
aI1451451361
aI1451452125
aI1451452653
aI1451453435
aI1451455865
aI1451457194
aI1451457669
aI1451458554
aI1451460511
aI1451461101
aI1451461295
aI1451461507
aI1451534384
aI1451537680
aI1451415018
aI1451150696
aI1450936314
aI1450924642
aI1450902324
aI1450903094
aI1450903297
aI1450903862
aI1450904865
aI1450907265
aI1450936563
aI1449851376
aI1449684837
aI1449685024
aI1449680091
aI1449680373
aI1449681125
aI1449681271
aI1449682356
aI1449685663
aI1449688899
aI1449689180
aI1449690184
aI1449690599
aI1449690755
aI1449691021
aI1449691453
aI1464974044
aI1449631368
aI1449512308
aI1449514261
aI1449446417
aI1449466438
aI1483243280
aI1483214069
aI1483219720
aI1483231728
aI1483238326
aI1483251805
aI1483252468
aI1483254419
aI1483316271
aI1483149722
aI1483151735
aI1483139814
aI1483048188
aI1483048312
aI1483050021
aI1482992434
aI1482985981
aI1482986147
aI1482986795
aI1482987779
aI1482977427
aI1482955081
aI1482907730
aI1482938905
aI1487858255
aI1491266002
aI1494767886
aI1494791759
aI1497897274
aI1482889050
aI1482889334
aI1482898045
aI1482896954
aI1482817603
aI1482818817
aI1482821469
aI1482840221
aI1482840467
aI1482842740
aI1482847441
aI1482852679
aI1482853155
aI1482821305
aI1482824495
aI1482812730
aI1482734453
aI1482734663
aI1482750516
aI1482730638
aI1482714300
aI1482716600
aI1482717400
aI1482706698
aI1482694634
aI1482692119
aI1482699239
aI1482715085
aI1482679009
aI1482637676
aI1482638199
aI1482644422
aI1482645433
aI1482647172
aI1482627489
aI1482627500
aI1482600955
aI1482603607
aI1482608701
aI1482609252
aI1482609788
aI1482615707
aI1482628132
aI1482691584
aI1485655248
aI1485659202
aI1485662044
aI1485808040
aI1482598241
aI1482574711
aI1482595109
aI1482565205
aI1482565352
aI1484674444
aI1482479817
aI1482480034
aI1482480633
aI1482497910
aI1482511298
aI1482518828
aI1482463543
aI1482465201
aI1482467827
aI1482472482
aI1482499785
aI1482433067
aI1482429847
aI1482430648
aI1482422957
aI1482424078
aI1482429515
aI1482440196
aI1482511907
aI1482624534
aI1482754852
aI1482427387
aI1482385063
aI1482355715
aI1482356861
aI1482419837
aI1482350725
aI1482322483
aI1482303928
aI1482304077
aI1482306182
aI1482291879
aI1482212047
aI1482243819
aI1482198578
aI1482207864
aI1482210923
aI1482186738
aI1482088590
aI1482088879
aI1482101598
aI1482074042
aI1482075110
aI1482065646
aI1482068470
aI1482087814
aI1482098393
aI1482049088
aI1482054061
aI1482075390
aI1482034900
aI1482039476
aI1482012497
aI1482005910
aI1481993832
aI1481929125
aI1481922065
aI1481929903
aI1482170802
aI1481953321
aI1481877771
aI1482161302
aI1481844353
aI1481845162
aI1481845507
aI1481845696
aI1481845916
aI1481846708
aI1481850132
aI1481850921
aI1481852629
aI1481821581
aI1481822114
aI1481871301
aI1481783811
aI1481728776
aI1481735602
aI1481742037
aI1481743765
aI1481693244
aI1481653463
aI1481648393
aI1481651868
aI1481661993
aI1481665787
aI1481635491
aI1481636413
aI1481649635
aI1481587022
aI1481561310
aI1481532229
aI1481513779
aI1514759159
aI1514801762
aI1514741325
aI1514743818
aI1514737333
aI1514699390
aI1514690055
aI1514691011
aI1514691611
aI1514627305
aI1514616101
aI1514596568
aI1514581600
aI1514583359
aI1514552690
aI1514532239
aI1514535787
aI1514564393
aI1514530578
aI1514509501
aI1514548510
aI1514507784
aI1514508031
aI1514514999
aI1514515689
aI1514552186
aI1514495104
aI1514496455
aI1514510817
aI1514439318
aI1514549866
aI1514429283
aI1514430082
aI1514413418
aI1514404353
aI1514368379
aI1514356867
aI1514354811
aI1514338755
aI1514335354
aI1514330114
aI1514324761
aI1514325109
aI1514326879
aI1514331125
aI1514288605
aI1514291454
aI1514319499
aI1514267127
aI1514284599
aI1514266419
aI1514290129
aI1514295765
aI1514299377
aI1514299889
aI1514305463
aI1514285277
aI1514319777
aI1514319857
aI1515177525
aI1514239889
aI1514235947
aI1514249173
aI1514286695
aI1514214283
aI1514250333
aI1514278430
aI1514601889
aI1514199210
aI1514205295
aI1514207306
aI1514190402
aI1514174127
aI1514174271
aI1514170534
aI1514176292
aI1514149504
aI1514149548
aI1514149710
aI1514157431
aI1514175683
aI1514178356
aI1514289308
aI1514310649
aI1514321185
aI1514322056
aI1514132893
aI1514133861
aI1514136834
aI1514340869
aI1514393287
aI1514134367
aI1514138217
aI1514142854
aI1514161344
aI1514212597
aI1514243906
aI1514121639
aI1514146266
aI1514151929
aI1514124327
aI1514124559
aI1514126599
aI1514127534
aI1514128944
aI1514138519
aI1514157638
aI1514100285
aI1514098453
aI1514089267
aI1514097798
aI1514416793
aI1514430621
aI1514061826
aI1514029809
aI1514034020
aI1514936068
aI1514287789
aI1514038048
aI1514004689
aI1514005106
aI1514005224
aI1514005887
aI1514009268
aI1514033500
aI1516485021
aI1513964340
aI1513965398
aI1513916827
aI1513916928
aI1513918292
aI1513962339
aI1513904057
aI1513904550
aI1513904674
aI1513907767
aI1513961773
aI1513984313
aI1513885662
aI1513826488
aI1513827387
aI1513866234
aI1513837823
aI1513898815
aI1513899082
aI1513817739
aI1513788945
aI1513796122
aI1513772011
aI1513774002
aI1513775209
aI1513775533
aI1513776844
aI1513776927
aI1513777658
aI1513778124
aI1513779323
aI1513781022
aI1513782423
aI1513782694
aI1513786075
aI1513786912
aI1513788547
aI1513788572
aI1513790705
aI1513795739
aI1513796659
aI1513797762
aI1513799054
aI1513799534
aI1513799962
aI1513801040
aI1513801271
aI1513801990
aI1513802457
aI1513804677
aI1513804913
aI1513807073
aI1513807408
aI1513807738
aI1513814712
aI1513815660
aI1513816934
aI1513820430
aI1513820465
aI1513820575
aI1513830832
aI1513832504
aI1513833449
aI1513846141
aI1513855113
aI1513860256
aI1513884377
aI1513950478
aI1513741456
aI1513741842
aI1513742188
aI1513721390
aI1513687937
aI1513737831
aI1513742926
aI1513653555
aI1513656351
aI1513656826
aI1513656905
aI1513647075
aI1513632371
aI1513639235
aI1513627541
aI1513623580
aI1513618223
aI1513617341
aI1513620285
aI1513622308
aI1513613325
aI1513616339
aI1513618221
aI1513618419
aI1513619322
aI1513654653
aI1513605606
aI1513566771
aI1513568755
aI1513569230
aI1513569733
aI1513569874
aI1513571732
aI1513617374
aI1513561018
aI1513549393
aI1513550537
aI1513556144
aI1513547176
aI1513573983
aI1513535361
aI1513568427
aI1513490687
aI1513489843
aI1513468094
aI1513472109
aI1513406069
aI1513464020
aI1513467623
aI1513474060
aI1513393833
aI1513804451
aI1515145244
aI1513378820
aI1513379342
aI1513385167
aI1513804613
aI1513321240
aI1513295929
aI1513289199
aI1513289687
aI1513297125
aI1513285919
aI1513359386
aI1513295873
aI1513226032
aI1513227972
aI1513235960
aI1513225587
aI1513217478
aI1513151389
aI1513051544
aI1513068228
aI1513049425
aI1513027229
aI1513025617
aI1513040235
aI1513037358
aI1513048942
aI1513001609
aI1513002342
aI1513023482
aI1513028442
aI1513030078
aI1513048607
aI1513001393
aI1513022378
aI1513001029
aI1512981869
aI1512987273
aI1513018473
aI1512973883
aI1512995873
aI1513021146
aI1512949719
aI1513000719
aI1512888155
aI1512888475
aI1512965315
aI1512886876
aI1512895838
aI1512872117
aI1512855314
aI1512921546
aI1512858761
aI1512828543
aI1512838449
aI1512838846
aI1512838881
aI1512850178
aI1512853000
aI1512854398
aI1512856636
aI1512800021
aI1512805558
aI1512806670
aI1512819543
aI1512819931
aI1512839202
aI1512790283
aI1512794324
aI1512794496
aI1512797324
aI1512798357
aI1512802117
aI1512796274
aI1512806580
aI1512769776
aI1512771323
aI1512786549
aI1512795488
aI1513029390
aI1513029737
aI1512762769
aI1513773756
aI1512698780
aI1512699382
aI1512733751
aI1512754022
aI1512682127
aI1512682399
aI1512682790
aI1512682937
aI1512683949
aI1512685093
aI1512691936
aI1512741307
aI1520108252
aI1512694137
aI1512677837
aI1512674695
aI1512665303
aI1512626839
aI1512607801
aI1512599206
aI1512579723
aI1512585389
aI1512554750
aI1512581423
aI1512526154
aI1512524360
aI1512528344
aI1512568163
aI1512498959
aI1512494586
aI1512495625
aI1512496758
aI1512529538
aI1512502332
aI1512502344
aI1512499578
aI1512427627
aI1512426316
aI1512491964
aI1512498551
aI1512405200
aI1512406349
aI1512380490
aI1512381008
aI1512382009
aI1512352751
aI1512355776
aI1512317904
aI1512318074
aI1512323527
aI1512332757
aI1512252379
aI1512220159
aI1512220254
aI1512220935
aI1512221246
aI1512221852
aI1512222793
aI1512223779
aI1512224236
aI1512232027
aI1512251862
aI1512252666
aI1512216410
aI1512219989
aI1512220381
aI1512220598
aI1512221398
aI1512224786
aI1512249892
aI1512251120
aI1512211806
aI1512212720
aI1512249092
aI1512257110
aI1512267697
aI1512207776
aI1512208680
aI1512208996
aI1512209336
aI1512209434
aI1512209740
aI1512210367
aI1512210871
aI1512211271
aI1512211604
aI1512211678
aI1512229477
aI1512514142
aI1512194694
aI1512188188
aI1512195087
aI1514459066
aI1512184238
aI1512197830
aI1512180178
aI1512169031
aI1512170353
aI1512173037
aI1512163860
aI1512159488
aI1512157837
aI1512151428
aI1512152070
aI1512344356
aI1512362052
aI1512403745
aI1512128934
aI1512144660
aI1512107478
aI1512110765
aI1512103736
aI1512107066
aI1512107316
aI1512097272
aI1512098036
aI1512140815
aI1521519532
aI1512087345
aI1512087357
aI1512078912
aI1512057573
aI1512061208
aI1512062511
aI1512063635
aI1512095941
aI1512089878
aI1512025769
aI1512047810
aI1526787398
aI1526787488
aI1526845319
aI1526854331
aI1526854701
aI1526855024
aI1512015797
aI1512017171
aI1512017454
aI1512017603
aI1512017673
aI1512017850
aI1512018411
aI1512018808
aI1512021127
aI1512021226
aI1512021362
aI1512021484
aI1512021733
aI1512049644
aI1511997214
aI1512005461
aI1511994180
aI1511995059
aI1511990850
aI1511987344
aI1511983925
aI1514368257
aI1511981088
aI1511996788
aI1511927475
aI1511945126
aI1511974331
aI1511917117
aI1511918229
aI1511918363
aI1511920928
aI1511921091
aI1511921261
aI1511921595
aI1511923547
aI1511970350
aI1511899125
aI1511890272
aI1511890623
aI1511882541
aI1511882779
aI1511884404
aI1511884463
aI1511884620
aI1511884917
aI1511888993
aI1511889720
aI1511867452
aI1546265887
aI1546268602
aI1546268772
aI1546270578
aI1546275456
aI1546279503
aI1546281188
aI1546295237
aI1546344528
aI1546278880
aI1546227924
aI1546226552
aI1546220578
aI1546223507
aI1546223569
aI1546231843
aI1546273222
aI1546246564
aI1546199346
aI1546165220
aI1546228672
aI1546170862
aI1546173761
aI1546124033
aI1546119996
aI1546470368
aI1546133431
aI1546076968
aI1546078917
aI1546080443
aI1546094243
aI1546096193
aI1546065525
aI1546060962
aI1546047256
aI1546086913
aI1546034330
aI1546022878
aI1546033439
aI1546018686
aI1546021476
aI1546031717
aI1546009877
aI1546012134
aI1546014809
aI1546063752
aI1546125360
aI1546012420
aI1557522825
aI1546014764
aI1546004630
aI1546011961
aI1545971149
aI1545960015
aI1545975985
aI1545927417
aI1545928538
aI1545941885
aI1545946300
aI1545919097
aI1545933284
aI1545943947
aI1545944660
aI1545958756
aI1545990751
aI1545920078
aI1545920418
aI1545898087
aI1545898122
aI1545898169
aI1545898355
aI1545902646
aI1545905593
aI1545915153
aI1545916209
aI1545860233
aI1545864876
aI1545853261
aI1545853531
aI1545855255
aI1545859325
aI1545860737
aI1545864010
aI1545880932
aI1545926267
aI1545840451
aI1545845433
aI1545863407
aI1545819235
aI1545819662
aI1545827597
aI1545840069
aI1545805615
aI1545781716
aI1545778198
aI1545779950
aI1545780584
aI1545781523
aI1545762699
aI1545764188
aI1545764293
aI1553476816
aI1545709033
aI1545709180
aI1545710645
aI1545712212
aI1545716643
aI1545749258
aI1545749560
aI1546022326
aI1545722883
aI1545714821
aI1545846452
aI1553547648
aI1545674015
aI1545668326
aI1545687941
aI1545716825
aI1545784868
aI1545667998
aI1545649786
aI1545658748
aI1545639009
aI1545595780
aI1545619350
aI1545589476
aI1545591097
aI1545591277
aI1545570933
aI1545548898
aI1545537089
aI1545539512
aI1545539707
aI1545541147
aI1545541330
aI1545543547
aI1545544642
aI1545546138
aI1545555606
aI1545559296
aI1545579548
aI1545585566
aI1545501083
aI1545502360
aI1545526984
aI1545447682
aI1545451736
aI1545456137
aI1545458110
aI1545433942
aI1545436753
aI1545430234
aI1545425898
aI1545426088
aI1545433004
aI1545433897
aI1545438740
aI1545449912
aI1555192251
aI1545421653
aI1545403397
aI1545420254
aI1545395209
aI1545396671
aI1545399213
aI1545402356
aI1545380250
aI1545367300
aI1545367723
aI1552321175
aI1545357187
aI1545363292
aI1545363563
aI1545366678
aI1545367713
aI1545369118
aI1545369307
aI1545369436
aI1545369696
aI1545369813
aI1545370029
aI1545370521
aI1545372079
aI1545372164
aI1545372582
aI1545399537
aI1545404197
aI1545406379
aI1545407776
aI1545407950
aI1545412721
aI1545422867
aI1545431830
aI1545432260
aI1545356362
aI1545359617
aI1545366071
aI1545346230
aI1545344106
aI1545345419
aI1545345868
aI1545347312
aI1545347503
aI1545347654
aI1545353642
aI1545334256
aI1545333490
aI1545329261
aI1545330497
aI1545331141
aI1545332880
aI1545334808
aI1545335638
aI1545346223
aI1545359095
aI1545362583
aI1545364897
aI1545365970
aI1545367249
aI1545590709
aI1545591236
aI1545591948
aI1545592328
aI1545608989
aI1545351833
aI1545307982
aI1545314822
aI1545317414
aI1545318833
aI1545319382
aI1545320515
aI1545321829
aI1545322029
aI1545322116
aI1545324331
aI1545325320
aI1545326271
aI1545326273
aI1545327862
aI1545329282
aI1545330152
aI1545330705
aI1545331958
aI1545337921
aI1545338548
aI1545342206
aI1545343230
aI1545345196
aI1545345375
aI1545345745
aI1545346245
aI1545346808
aI1545371299
aI1545392792
aI1545399517
aI1545938782
aI1554965827
aI1545326779
aI1545273146
aI1545274292
aI1545279438
aI1545281961
aI1545259987
aI1545279666
aI1545282603
aI1545313084
aI1545396200
aI1545250433
aI1545250711
aI1545418719
aI1545250657
aI1545247524
aI1545268380
aI1545242914
aI1552155160
aI1545237393
aI1545243380
aI1545246301
aI1545235885
aI1545240765
aI1545235232
aI1545236039
aI1545238543
aI1545266628
aI1545269240
aI1545290475
aI1545331784
aI1545247695
aI1545249614
aI1545257747
aI1545208248
aI1545248979
aI1545177870
aI1545207673
aI1545209601
aI1545217492
aI1545210604
aI1545174684
aI1545182180
aI1545200728
aI1545205658
aI1545222186
aI1545217962
aI1545242716
aI1545149641
aI1545187134
aI1545197220
aI1545222927
aI1545152819
aI1545157743
aI1545162937
aI1545165980
aI1545174989
aI1545130547
aI1545163202
aI1545163277
aI1545108398
aI1545104305
aI1545117489
aI1545164706
aI1545167727
aI1547835391
aI1548478961
aI1548543847
aI1548734909
aI1545100376
aI1545089005
aI1545091404
aI1545102263
aI1545139119
aI1545166533
aI1545167184
aI1545093401
aI1545106414
aI1545067157
aI1545068784
aI1545078501
aI1545078821
aI1545080709
aI1545081295
aI1545082729
aI1545046314
aI1545048694
aI1545051809
aI1545053088
aI1545053672
aI1545056609
aI1545057164
aI1545057198
aI1545058387
aI1545058632
aI1545060645
aI1545061772
aI1545062059
aI1545063399
aI1545063788
aI1545065685
aI1545066285
aI1545066711
aI1545067539
aI1545067631
aI1545068173
aI1545069428
aI1545069655
aI1545069992
aI1545070705
aI1545070882
aI1545070992
aI1545071130
aI1545072185
aI1545074251
aI1545074354
aI1545076242
aI1545076740
aI1545076749
aI1545077104
aI1545077199
aI1545077348
aI1545077531
aI1545077552
aI1545078603
aI1545078883
aI1545079108
aI1545079276
aI1545080328
aI1545080564
aI1545080671
aI1545081705
aI1545082261
aI1545082625
aI1545083045
aI1545083054
aI1545083429
aI1545083812
aI1545083860
aI1545084003
aI1545084083
aI1545084714
aI1545085380
aI1545087241
aI1545088027
aI1545088690
aI1545089599
aI1545089995
aI1545092594
aI1545114366
aI1545125466
aI1545137000
aI1545139720
aI1545140835
aI1545141110
aI1545148247
aI1545167263
aI1545293646
aI1545303116
aI1545034224
aI1545035642
aI1545041598
aI1545017132
aI1545020346
aI1545010294
aI1545017515
aI1545020558
aI1545006287
aI1545007391
aI1545001643
aI1544932293
aI1544935287
aI1544945336
aI1544967743
aI1544925274
aI1544926897
aI1544957500
aI1544961657
aI1544919995
aI1544914027
aI1544915162
aI1544925258
aI1544959396
aI1544974248
aI1544904632
aI1544893487
aI1544894742
aI1544965909
aI1544880076
aI1544900979
aI1544901131
aI1544903704
aI1544910406
aI1544924347
aI1544943445
aI1544846243
aI1546096721
aI1546100615
aI1548905529
aI1554728077
aI1544843191
aI1544844380
aI1544844614
aI1544848838
aI1544849764
aI1544859350
aI1544859420
aI1545075879
aI1548355975
aI1548356242
aI1544834983
aI1544820971
aI1544824824
aI1544787126
aI1544778052
aI1544788247
aI1544795286
aI1544796604
aI1544798428
aI1544798864
aI1544805356
aI1544805646
aI1544750593
aI1544751924
aI1544753583
aI1544757208
aI1544771645
aI1544779388
aI1544789404
aI1544791467
aI1544796915
aI1544797269
aI1544800177
aI1544801118
aI1544802233
aI1544804677
aI1544762463
aI1544710991
aI1544725512
aI1544716029
aI1544716264
aI1544718357
aI1544720764
aI1544738010
aI1544705341
aI1544707599
aI1544760780
aI1544676147
aI1544659731
aI1544674243
aI1544676063
aI1544740954
aI1544649716
aI1544653373
aI1544656031
aI1544659912
aI1544659926
aI1544647780
aI1544646505
aI1544642582
aI1544639830
aI1544640170
aI1544638144
aI1544638153
aI1544634502
aI1544643385
aI1544644076
aI1544647379
aI1544656090
aI1544626410
aI1544628215
aI1544641525
aI1544644165
aI1544645998
aI1544775754
aI1544629776
aI1544602867
aI1544615870
aI1544617429
aI1544629585
aI1544637975
aI1544640930
aI1544603058
aI1544630444
aI1544630785
aI1544611116
aI1544577076
aI1544564871
aI1544563728
aI1544570691
aI1544790302
aI1544552550
aI1544555725
aI1544585637
aI1544521828
aI1544526354
aI1544537876
aI1544556206
aI1544563257
aI1544515782
aI1544495836
aI1544489363
aI1544488252
aI1544499209
aI1544475184
aI1544466249
aI1544466651
aI1544467306
aI1544476389
aI1544461388
aI1544461502
aI1544452215
aI1544464092
aI1544465551
aI1544468628
aI1544468784
aI1544548594
aI1544453484
aI1544459144
aI1544436315
aI1544449819
aI1544437015
aI1544388641
aI1544382081
aI1544382192
aI1544382618
aI1544377442
aI1544353534
aI1544326900
aI1544327160
aI1544327196
aI1544327572
aI1544327619
aI1544328083
aI1544331670
aI1544335996
aI1544336821
aI1544340282
aI1544340684
aI1544351624
aI1544301506
aI1544286644
aI1544286670
aI1544287302
aI1544291275
aI1544292070
aI1544293298
aI1544295065
aI1544310806
aI1544315556
aI1544319459
aI1544282951
aI1544288384
aI1544232189
aI1544236437
aI1544253545
aI1544604870
aI1544216693
aI1544219914
aI1544219563
aI1550882660
aI1544211776
aI1544293588
aI1544220514
aI1544175153
aI1544171315
aI1544144865
aI1544147514
aI1544151437
aI1544152826
aI1544139325
aI1544145288
aI1544153766
aI1544136892
aI1544115926
aI1544114707
aI1544113820
aI1544121662
aI1544109219
aI1544113040
aI1544117194
aI1544083529
aI1544085333
aI1544059143
aI1544041168
aI1544047956
aI1544052344
aI1544065585
aI1544107039
aI1544039793
aI1544052722
aI1544126098
aI1544131593
aI1544028654
aI1544019409
aI1544021549
aI1544024440
aI1544031685
aI1544144940
aI1544038824
aI1544001027
aI1544017715
aI1544022639
aI1544053430
aI1543968579
aI1544046046
aI1544046265
aI1544052162
aI1544033244
aI1543954551
aI1543960625
aI1543961672
aI1543939000
aI1543990204
aI1543925893
aI1543940955
aI1543950185
aI1543977840
aI1543981949
aI1543899432
aI1543914552
aI1543921554
aI1543934708
aI1543937067
aI1548727360
aI1543882802
aI1543962520
aI1543938171
aI1543879906
aI1543895089
aI1543957012
aI1543875616
aI1543872566
aI1543873037
aI1543878993
aI1543888278
aI1543908887
aI1543934446
aI1543946149
aI1543857030
aI1543857978
aI1543858295
aI1543862868
aI1543878241
aI1543856381
aI1543860063
aI1543815674
aI1543817109
aI1543826543
aI1543827361
aI1543832002
aI1543834650
aI1543835276
aI1543840680
aI1543842393
aI1543842667
aI1543845329
aI1543846758
aI1543848920
aI1543848997
aI1543852529
aI1543853054
aI1543853512
aI1543855215
aI1543856963
aI1543862909
aI1543862999
aI1543864881
aI1543869551
aI1543872238
aI1543881811
aI1543888228
aI1543888455
aI1543898140
aI1548087028
aI1549261450
aI1550901784
aI1543797009
aI1543785177
aI1543768724
aI1543772403
aI1543777399
aI1543780756
aI1543783085
aI1543784549
aI1543784776
aI1543788781
aI1543804730
aI1543806248
aI1543810583
aI1543836721
aI1543770077
aI1544139567
aI1543779860
aI1543710986
aI1543717298
aI1543769485
aI1543683779
aI1543648819
aI1543664261
aI1543668048
aI1543726589
aI1543560615
aI1543534359
aI1543541241
aI1543526390
aI1543516357
aI1543515585
aI1543513043
aI1543515842
aI1543517167
aI1543525223
aI1543528807
aI1543548035
aI1543581634
aI1543585355
aI1543589554
aI1543506167
aI1543506837
aI1543509935
aI1543517748
aI1543493799
aI1543464342
aI1543467414
aI1543478660
aI1543463727
aI1543457566
aI1543449145
aI1543440701
aI1543433652
aI1543433206
aI1543419631
aI1543419683
aI1543409823
aI1543349928
aI1543326922
aI1543356080
aI1543296619
aI1543282566
aI1543286210
aI1543408886
aI1543245494
aI1543245195
aI1543245518
aI1543245655
aI1543224334
aI1543200013
aI1543193075
aI1543195415
aI1543200300
aI1543261027
aI1543191735
aI1543169432
aI1543169145
aI1543357442
aI1543457546
aI1543103965
aI1543091015
aI1543078490
aI1543089699
aI1543055668
aI1543047954
aI1543090899
aI1543043635
aI1543035183
aI1543020280
aI1543018050
a.