(lp0
I1514586261
aI1546142150
aI1546025141
aI1546027811
aI1545962475
aI1545967227
aI1545970113
aI1545981954
aI1546000531
aI1546005584
aI1545818595
aI1545834433
aI1545677013
aI1545677616
aI1545629075
aI1545619423
aI1545602146
aI1545535927
aI1545526778
aI1545527049
aI1545416989
aI1545346530
aI1545346800
aI1545326398
aI1545248036
aI1545290580
aI1545219676
aI1545179153
aI1545067405
aI1545009133
aI1545009811
aI1545010141
aI1545011336
aI1545062469
aI1545009291
aI1545009724
aI1545003108
aI1544922977
aI1544917326
aI1544916535
aI1544829484
aI1544833343
aI1544834366
aI1544798839
aI1544656633
aI1544648447
aI1544635048
aI1544497062
aI1544405562
aI1544405996
aI1544406990
aI1544407204
aI1545609767
aI1545611597
aI1544191226
aI1544150156
aI1544158352
aI1544146925
aI1544149880
aI1544150644
aI1544153026
aI1544154810
aI1544160198
aI1544165500
aI1544182549
aI1544198376
aI1544101896
aI1544057509
aI1543990211
aI1543971049
aI1543971280
aI1543924913
aI1543923098
aI1543817294
aI1545333475
aI1543715333
aI1543256809
aI1542995691
aI1542898323
aI1542901234
aI1542903739
aI1542905004
aI1542905864
aI1542937614
aI1542990926
aI1542852078
aI1542814317
aI1542495368
aI1542410057
a.