(lp0
I1514669683
aI1514140549
aI1513984804
aI1513873838
aI1513622800
aI1513432919
aI1513444933
aI1513175337
aI1513183172
aI1513210622
aI1512756072
aI1512691596
aI1512678305
aI1512623866
aI1511813860
aI1511663905
aI1511829476
aI1511167819
aI1511181913
aI1511134461
aI1510887507
aI1510770423
aI1510933800
aI1510241579
aI1510194241
aI1511496364
aI1509735528
aI1509400928
aI1508725913
aI1508795541
aI1508126386
aI1507992500
aI1507849864
aI1507936243
aI1507932047
aI1507769309
aI1507837273
aI1507837309
aI1507837679
aI1507651958
aI1507504364
aI1507516270
aI1507590274
aI1507223797
aI1507254762
aI1507126376
aI1506583393
aI1506730899
aI1506063469
aI1506150457
aI1505862361
aI1505848365
aI1505747674
aI1505776117
aI1504757785
aI1504784027
aI1504331179
aI1501689041
aI1501702172
aI1501370958
aI1501337107
aI1501118729
aI1503465213
aI1500869202
aI1500391608
aI1500338497
aI1499586770
aI1499127050
aI1499066850
aI1498885367
aI1498885539
aI1498886651
aI1497136015
aI1497016896
aI1497027024
aI1496868254
aI1496463138
aI1496400103
aI1495668299
aI1495648781
aI1495242923
aI1495046063
aI1495046734
aI1495058504
aI1493865954
aI1492021596
aI1490423464
aI1488330567
aI1488330831
aI1488237583
aI1487027803
aI1544862053
aI1544728262
aI1544634434
aI1544557404
aI1544248811
aI1544031133
aI1543539944
aI1543546970
aI1543444595
aI1543355078
aI1543276131
aI1543590487
a.