(lp0
I1514288605
aI1514305463
aI1514173704
aI1514174876
aI1514149504
aI1514289308
aI1514038048
aI1513775209
aI1513781022
aI1513801271
aI1513742926
aI1513617374
aI1513804613
aI1513342244
aI1519225645
aI1513151275
aI1512665228
aI1512568410
aI1512572023
aI1512568163
aI1512496136
aI1512444151
aI1512498551
aI1512272685
aI1512221852
aI1512226772
aI1512226823
aI1512267697
aI1512141482
aI1512021127
aI1512021226
aI1512021362
aI1512021484
aI1512022767
aI1511919161
aI1511919744
aI1524016860
aI1511970350
aI1511905742
aI1511906434
aI1511946355
aI1511893010
aI1511902073
a.