(lp0
I1509236999
aI1540703085
aI1540665740
aI1539347793
aI1537915573
aI1537418517
aI1536207440
aI1529681075
aI1529905541
aI1528812396
aI1528477480
aI1528403485
aI1527719524
aI1523254411
aI1522172040
aI1520312047
aI1520316943
a.