(lp0
I1513554759
aI1509236999
aI1546240400
aI1546261390
aI1546286031
aI1546037203
aI1546040034
aI1546041217
aI1545987300
aI1546017757
aI1545467432
aI1544103534
aI1543999631
aI1542340561
aI1541711520
aI1540703085
aI1540665740
aI1539347793
aI1537915573
aI1537473348
aI1537418517
aI1536207440
aI1532970219
aI1530289911
aI1529681075
aI1529905541
aI1529589684
aI1528812396
aI1528477480
aI1528403485
aI1527719524
aI1523864749
aI1523254411
aI1522162064
aI1522172040
aI1520312047
aI1520316943
a.