(lp0
I1506782195
aI1545873519
aI1545759942
aI1544773110
aI1543281642
aI1540159760
aI1539393729
aI1539306606
aI1538083474
aI1534219779
aI1530850831
aI1541148357
aI1528167910
aI1527055696
aI1526893209
aI1526865568
aI1526577255
aI1523072916
aI1522092687
aI1522269346
aI1521852321
aI1521365892
aI1521383831
aI1520887407
a.