(lp0
I1525061736
aI1523499598
aI1519227643
aI1518704989
aI1518711088
aI1517822261
aI1517135384
aI1517195044
aI1515323374
aI1515213715
aI1530402585
aI1530352101
aI1530304761
aI1522253779
aI1522261973
aI1522262295
aI1523024007
aI1522141533
aI1521670622
aI1526743097
aI1526158793
aI1526049266
aI1525932852
a.