(lp0
I1483066004
aI1514704958
aI1514679263
aI1514612141
aI1514596568
aI1514597911
aI1514591268
aI1514587575
aI1514535787
aI1514526581
aI1514525990
aI1514579433
aI1514515013
aI1514528872
aI1514573511
aI1514498424
aI1514510817
aI1514449534
aI1514447704
aI1514446954
aI1514440534
aI1514439318
aI1514419323
aI1514404353
aI1514405522
aI1514422487
aI1514548652
aI1514361833
aI1514336170
aI1514331967
aI1514348540
aI1514330114
aI1514332750
aI1514331125
aI1514480910
aI1514327288
aI1514349329
aI1514349373
aI1514266467
aI1515177525
aI1514237416
aI1514241824
aI1514274423
aI1514320053
aI1514205070
aI1514205129
aI1514205255
aI1514207105
aI1514207306
aI1514187043
aI1514190402
aI1514180000
aI1514197831
aI1514165799
aI1514166349
aI1514168015
aI1514159423
aI1514209769
aI1514160071
aI1514172179
aI1514176579
aI1514177873
aI1514188896
aI1514216331
aI1514309173
aI1514785529
aI1519696016
aI1514132893
aI1514138121
aI1514139075
aI1514140455
aI1514140932
aI1514154071
aI1514261365
aI1514340062
aI1514340869
aI1514111672
aI1514124559
aI1514086628
aI1514086605
aI1514089037
aI1514081404
aI1514082231
aI1514082412
aI1514082424
aI1514162417
aI1514075917
aI1514075725
aI1514078366
aI1514075585
aI1514150672
aI1514068819
aI1514067224
aI1514067109
aI1514065625
aI1514079430
aI1514024006
aI1514007799
aI1513990430
aI1513986177
aI1513986483
aI1513993663
aI1516485021
aI1516646860
aI1513992310
aI1513916583
aI1513903222
aI1513903619
aI1513831250
aI1513820407
aI1513820506
aI1513817858
aI1513818095
aI1513825345
aI1513826684
aI1513826813
aI1513775819
aI1513802457
aI1513807247
aI1513814712
aI1513846141
aI1513741842
aI1513729075
aI1513729574
aI1513729776
aI1513729856
aI1513729960
aI1513724670
aI1513729242
aI1513757237
aI1513711234
aI1513701833
aI1513731558
aI1513569356
aI1513617374
aI1513554594
aI1513555450
aI1513548990
aI1513550255
aI1513565461
aI1513532398
aI1513503884
aI1513497479
aI1513494772
aI1513500240
aI1513539005
aI1513632487
aI1513489925
aI1513463857
aI1513453932
aI1513467623
aI1513474060
aI1513396984
aI1513397520
aI1515300798
aI1513385167
aI1513374550
aI1513375032
aI1513373845
aI1513369350
aI1513364014
aI1513310733
aI1513304995
aI1513305455
aI1513307003
aI1514220529
aI1513304892
aI1513285919
aI1513738882
aI1519225645
aI1513267487
aI1513274203
aI1513534865
aI1513251039
aI1513255980
aI1513225587
aI1513228282
aI1513225188
aI1513209967
aI1513211632
aI1513130019
aI1513101429
aI1513110335
aI1513055554
aI1513151275
aI1513176707
aI1513051544
aI1513036220
aI1513032016
aI1513024338
aI1513021024
aI1513022470
aI1513017582
aI1513029969
aI1512948793
aI1512951687
aI1512985089
aI1512949719
aI1512888475
aI1512887264
aI1512887320
aI1512887396
aI1512851945
aI1512855676
aI1512800021
aI1512788930
aI1512790193
aI1512794324
aI1512797324
aI1512791706
aI1512796288
aI1512784981
aI1512782486
aI1512783197
aI1512768795
aI1512768945
aI1512774117
aI1512762226
aI1512685230
aI1512685363
aI1512685571
aI1512685011
aI1512685383
aI1512691643
aI1512687511
aI1512694137
aI1512674695
aI1512660662
aI1514101355
aI1514678906
aI1512697568
aI1512701933
aI1512627355
aI1512629086
aI1512629119
aI1512601029
aI1512601691
aI1512601705
aI1512599206
aI1512596999
aI1512573637
aI1512549953
aI1512568163
aI1512506586
aI1512508129
aI1512527245
aI1512495625
aI1512496136
aI1512512242
aI1512489794
aI1512492725
aI1512493941
aI1512400868
aI1512403782
aI1512491959
aI1512359041
aI1512367255
aI1512272975
aI1512254061
aI1512237866
aI1512227289
aI1512229394
aI1512239891
aI1512201348
aI1512204065
aI1512204858
aI1512207350
aI1512208680
aI1512208996
aI1512209149
aI1512209336
aI1512209434
aI1512210265
aI1512210367
aI1512210516
aI1512211620
aI1512235664
aI1512188188
aI1514459066
aI1514485146
aI1512180178
aI1512162070
aI1512164690
aI1512178992
aI1512159488
aI1512161824
aI1512157837
aI1512158699
aI1512172436
aI1512190656
aI1512492042
aI1512715897
aI1512155599
aI1512160743
aI1512152377
aI1512152070
aI1512148588
aI1512151433
aI1512152311
aI1512152890
aI1512156876
aI1512164912
aI1512167763
aI1514538450
aI1512098036
aI1512097929
aI1512095625
aI1515063251
aI1517283887
aI1519956448
aI1525274918
aI1525286223
aI1525315176
aI1525386957
aI1512106133
aI1512086139
aI1512080734
aI1512081263
aI1512083590
aI1512061049
aI1524898049
aI1526787398
aI1512023447
aI1512023915
aI1512055292
aI1512089384
aI1512021575
aI1512005823
aI1511996338
aI1511990293
aI1511990402
aI1511990850
aI1511991850
aI1511976695
aI1511991538
aI1511939812
aI1511915464
aI1511901777
aI1511886201
aI1511900647
aI1511948948
aI1511900825
aI1543618490
aI1543559488
aI1543526390
aI1543509935
aI1543506123
aI1543513781
aI1543514660
aI1543454693
aI1543453713
aI1543398773
aI1543345379
aI1543332386
aI1543287640
aI1543286748
aI1543281144
aI1543206134
aI1543184673
aI1543090429
aI1543013585
a.